(lp0
(S'TP009200906196'
p1
cnumpy.core.multiarray
scalar
p2
(cnumpy
dtype
p3
(S'f8'
p4
I0
I1
tp5
Rp6
(I3
S'<'
p7
NNNI-1
I-1
I0
tp8
bS'\x88\xfd\x88\xc34gd@'
p9
tp10
Rp11
tp12
a(S'TP009200906191'
p13
g2
(g6
S'U\x19\xea\xf8X]Q@'
p14
tp15
Rp16
tp17
a(S'TP001200903165'
p18
g2
(g6
S'\xb3\xab\t \xad\xf9?@'
p19
tp20
Rp21
tp22
a(S'TP001200903166'
p23
g2
(g6
S'V\xc8l\x95\xfd\xb6\\@'
p24
tp25
Rp26
tp27
a(S'TP0012009031638'
p28
g2
(g6
S'\xcdE\xb4C\x18\x92C@'
p29
tp30
Rp31
tp32
a(S'TP001200903169'
p33
g2
(g6
S'\xb0\xc7\xc1\x90\x0cQ-@'
p34
tp35
Rp36
tp37
a(S'TP0012009031610'
p38
g2
(g6
S'\xcd\xe3C5_\x94M@'
p39
tp40
Rp41
tp42
a(S'TP0012009031614'
p43
g2
(g6
S'i\xea\xa8\xad\x04\xbfE@'
p44
tp45
Rp46
tp47
a(S'TP0012009031615'
p48
g2
(g6
S'/\xdb\xe0\xb5\xf9h=@'
p49
tp50
Rp51
tp52
a(S'TP002200903161'
p53
g2
(g6
S'\xe59$\x80`\xe7@@'
p54
tp55
Rp56
tp57
a(S'TP002200903163'
p58
g2
(g6
S'P\n;{\xb6a5@'
p59
tp60
Rp61
tp62
a(S'TP002200903164'
p63
g2
(g6
S'\xe7\xab\xb6\xfbQ\nW@'
p64
tp65
Rp66
tp67
a(S'TP002200903166'
p68
g2
(g6
S'OP\xfa\xa2@,I@'
p69
tp70
Rp71
tp72
a(S'TP002200903167'
p73
g2
(g6
S'\xc0I\x8d\x1d\xb0{J@'
p74
tp75
Rp76
tp77
a(S'TP002200903169'
p78
g2
(g6
S'\x13G\xc6\x02h\x0bK@'
p79
tp80
Rp81
tp82
a(S'TP0022009031610'
p83
g2
(g6
S'\xec~\xf4\xa9\xaf\x93E@'
p84
tp85
Rp86
tp87
a(S'TP0022009031611'
p88
g2
(g6
S'\x8c\xf1\x83\xb5r\xbf<@'
p89
tp90
Rp91
tp92
a(S'TP0022009031612'
p93
g2
(g6
S'\xae\x04\x8e5\xea^b@'
p94
tp95
Rp96
tp97
a(S'TP0022009031613'
p98
g2
(g6
S'\x12\x8c \xf0\x87\xc7Q@'
p99
tp100
Rp101
tp102
a(S'TP0022009031614'
p103
g2
(g6
S'\x8d\x97\x92bf?:@'
p104
tp105
Rp106
tp107
a(S'TP0022009031615'
p108
g2
(g6
S'\xac\xfbU}\x98\x01?@'
p109
tp110
Rp111
tp112
a(S'TP0022009031616'
p113
g2
(g6
S'\x16\\j\xd5\xee\xd1C@'
p114
tp115
Rp116
tp117
a(S'TP0022009031617'
p118
g2
(g6
S'v\rnV\xb7\x9bI@'
p119
tp120
Rp121
tp122
a(S'TP0022009031618'
p123
g2
(g6
S'\x06\x92\x8b\xbbv2J@'
p124
tp125
Rp126
tp127
a(S'TP0022009031620'
p128
g2
(g6
S'&\xbc3\x97\x9c\x0eR@'
p129
tp130
Rp131
tp132
a(S'TP0022009031621'
p133
g2
(g6
S'\xfc\x81\x08\xdfb#8@'
p134
tp135
Rp136
tp137
a(S'TP0022009031623'
p138
g2
(g6
S'pt\x85\xf0\x1f\xa7h@'
p139
tp140
Rp141
tp142
a(S'TP0022009031624'
p143
g2
(g6
S'\xf0I*BP\xf5c@'
p144
tp145
Rp146
tp147
a(S'TP0022009031626'
p148
g2
(g6
S'w\x19\xac\xdb\x94\xe2P@'
p149
tp150
Rp151
tp152
a(S'TP0022009031625'
p153
g2
(g6
S'\x9a\xbc\xe3\xebb_J@'
p154
tp155
Rp156
tp157
a(S'TP001200903164'
p158
g2
(g6
S'\x18\x1dH\x0e\x91\x9bL@'
p159
tp160
Rp161
tp162
a(S'TP0012009031612'
p163
g2
(g6
S'}\x9dU\xf7\xeb\xedb@'
p164
tp165
Rp166
tp167
a(S'TP0012009031613'
p168
g2
(g6
S'Z\\\xef\xd1v\x92<@'
p169
tp170
Rp171
tp172
a(S'TP015200906223'
p173
g2
(g6
S'u\xf8\x07Y9~I@'
p174
tp175
Rp176
tp177
a(S'37104020121101102'
p178
g2
(g6
S'\xc9\xe4\xa3Y\x9al@@'
p179
tp180
Rp181
tp182
a(S'TP0152009062222'
p183
g2
(g6
S'\xac^\xab\xbc\xf7\xbeL@'
p184
tp185
Rp186
tp187
a(S'TP0152009062225'
p188
g2
(g6
S'(\x04\xcdA\xa6RT@'
p189
tp190
Rp191
tp192
a(S'TP0012009031611'
p193
g2
(g6
S'\x93\xce\xa5\xc6\xf1\n7@'
p194
tp195
Rp196
tp197
a(S'TP015200906224'
p198
g2
(g6
S'\x94QB\xb4\x0b5S@'
p199
tp200
Rp201
tp202
a(S'TP0152009062220'
p203
g2
(g6
S'W\xe3\x18\x90d\xfeQ@'
p204
tp205
Rp206
tp207
a(S'TP002200903162'
p208
g2
(g6
S'dF[4\xc9MF@'
p209
tp210
Rp211
tp212
a(S'TP0152009062216'
p213
g2
(g6
S'K\x14;\xea\x7f\x91V@'
p214
tp215
Rp216
tp217
a(S'TP002200903165'
p218
g2
(g6
S'\xf4\x015$\x9eIW@'
p219
tp220
Rp221
tp222
a(S'TP001200903163'
p223
g2
(g6
S'J[y\x9f\xa9P;@'
p224
tp225
Rp226
tp227
a(S'TP001200903161'
p228
g2
(g6
S'\xa2\x954\xc3\x0e\x8c8@'
p229
tp230
Rp231
tp232
a(S'RN0102008123015'
p233
g2
(g6
S'\xbe9\xb1%X\xb1F@'
p234
tp235
Rp236
tp237
a(S'TP001200903162'
p238
g2
(g6
S'D?7Ox\xf4\x1a@'
p239
tp240
Rp241
tp242
a.